(dp0
S'flight1'
p1
(lp2
S'easyJet'
p3
aS'60  EUR'
p4
aS'16:05'
p5
aS'18:15'
p6
asS'flight3'
p7
(lp8
S'Air France'
p9
aS'120  EUR'
p10
aS'18:30'
p11
aS'20:35'
p12
asS'flight2'
p13
(lp14
S'Air France'
p15
aS'113  EUR'
p16
aS'07:20'
p17
aS'09:25'
p18
asS'flight5'
p19
(lp20
S'Brussels Airlines'
p21
aS'222  EUR'
p22
aS'12:15'
p23
aS'18:55'
p24
asS'flight4'
p25
(lp26
S'Turkish Airlines'
p27
aS'203  EUR'
p28
aS'18:15'
p29
aS'13:00'
p30
asS'flight7'
p31
(lp32
S'Alitalia'
p33
aS'259  EUR'
p34
aS'07:20'
p35
aS'15:05'
p36
asS'flight6'
p37
(lp38
S'Turkish Airlines'
p39
aS'226  EUR'
p40
aS'15:50'
p41
aS'13:00'
p42
asS'flight9'
p43
(lp44
S'Alitalia'
p45
aS'295  EUR'
p46
aS'07:00'
p47
aS'15:05'
p48
asS'flight8'
p49
(lp50
S'Alitalia'
p51
aS'288  EUR'
p52
aS'20:40'
p53
aS'11:50'
p54
asS'flight10'
p55
(lp56
S'Air France'
p57
aS'321  EUR'
p58
aS'13:05'
p59
aS'15:10'
p60
as.